; Function Attrs: mustprogress nofree norecurse nosync nounwind willreturn memory(read, inaccessiblemem: none) uwtable
define noundef i32 @_ZNK5ZXing10BigInteger5toIntEv(ptr noundef nonnull readonly align 8 captures(none) dereferenceable(32) %0) local_unnamed_addr #3 align 2 {
  %2 = getelementptr inbounds nuw i8, ptr %0, i64 8
  %3 = load ptr, ptr %2, align 8, !tbaa !22
  %4 = getelementptr inbounds nuw i8, ptr %0, i64 16
  %5 = load ptr, ptr %4, align 8, !tbaa !22
  %6 = icmp eq ptr %3, %5
  br i1 %6, label %14, label %7

7:                                                ; preds = %1
  %8 = load i8, ptr %0, align 8, !tbaa !34, !range !39, !noundef !40
  %9 = trunc nuw i8 %8 to i1
  %10 = getelementptr inbounds i8, ptr %5, i64 -8
  %11 = load i64, ptr %10, align 8, !tbaa !23
  %12 = trunc i64 %11 to i32
  %13 = sub nsw i32 0, %12
  %spec.select = select i1 %9, i32 %13, i32 %12
  br label %14

14:                                               ; preds = %7, %1
  %.0 = phi i32 [ 0, %1 ], [ %spec.select, %7 ]
  ret i32 %.0
}